target datalayout = "e-m:e-p270:32:32-p271:32:32-p272:64:64-i64:64-i128:128-f80:128-n8:16:32:64-S128"
target triple = "x86_64-unknown-linux-gnu"

%"class.icu_75::DecimalFormatSymbols" = type <{ %"class.icu_75::UObject", [29 x %"class.icu_75::UnicodeString"], %"class.icu_75::UnicodeString", i32, [4 x i8], %"class.icu_75::Locale", [157 x i8], [157 x i8], [6 x i8], ptr, [3 x %"class.icu_75::UnicodeString"], [3 x %"class.icu_75::UnicodeString"], i8, i8, [9 x i8], [5 x i8] }>
%"class.icu_75::UObject" = type { ptr }
%"class.icu_75::UnicodeString" = type { %"class.icu_75::Replaceable", %"union.icu_75::UnicodeString::StackBufferOrFields" }
%"class.icu_75::Replaceable" = type { %"class.icu_75::UObject" }
%"union.icu_75::UnicodeString::StackBufferOrFields" = type { %struct.anon.0, [32 x i8] }
%struct.anon.0 = type { i16, i32, i32, ptr }
%"class.icu_75::Locale" = type <{ %"class.icu_75::UObject", [12 x i8], [6 x i8], [4 x i8], [2 x i8], i32, [4 x i8], ptr, [157 x i8], [3 x i8], ptr, i8, [7 x i8] }>

; Function Attrs: mustprogress uwtable
define void @_ZN6icu_7520DecimalFormatSymbols28setPatternForCurrencySpacingE16UCurrencySpacingaRKNS_13UnicodeStringE(ptr noundef nonnull align 8 dereferenceable(2883) %this, i32 noundef %type, i8 noundef signext %beforeCurrency, ptr noundef nonnull align 8 dereferenceable(64) %pattern) #1 align 2 {
entry:
  %this.addr = alloca ptr, align 8
  %type.addr = alloca i32, align 4
  %beforeCurrency.addr = alloca i8, align 1
  %pattern.addr = alloca ptr, align 8
  store ptr %this, ptr %this.addr, align 8
  store i32 %type, ptr %type.addr, align 4
  store i8 %beforeCurrency, ptr %beforeCurrency.addr, align 1
  store ptr %pattern, ptr %pattern.addr, align 8
  %this1 = load ptr, ptr %this.addr, align 8
  %0 = load i8, ptr %beforeCurrency.addr, align 1
  %tobool = icmp ne i8 %0, 0
  br i1 %tobool, label %if.then, label %if.else

if.then:                                          ; preds = %entry
  %1 = load ptr, ptr %pattern.addr, align 8
  %currencySpcBeforeSym = getelementptr inbounds %"class.icu_75::DecimalFormatSymbols", ptr %this1, i32 0, i32 10
  %2 = load i32, ptr %type.addr, align 4
  %idxprom = sext i32 %2 to i64
  %arrayidx = getelementptr inbounds [3 x %"class.icu_75::UnicodeString"], ptr %currencySpcBeforeSym, i64 0, i64 %idxprom
  %call = call noundef nonnull align 8 dereferenceable(64) ptr @_ZN6icu_7513UnicodeStringaSERKS0_(ptr noundef nonnull align 8 dereferenceable(64) %arrayidx, ptr noundef nonnull align 8 dereferenceable(64) %1)
  br label %if.end

if.else:                                          ; preds = %entry
  %3 = load ptr, ptr %pattern.addr, align 8
  %currencySpcAfterSym = getelementptr inbounds %"class.icu_75::DecimalFormatSymbols", ptr %this1, i32 0, i32 11
  %4 = load i32, ptr %type.addr, align 4
  %idxprom2 = sext i32 %4 to i64
  %arrayidx3 = getelementptr inbounds [3 x %"class.icu_75::UnicodeString"], ptr %currencySpcAfterSym, i64 0, i64 %idxprom2
  %call4 = call noundef nonnull align 8 dereferenceable(64) ptr @_ZN6icu_7513UnicodeStringaSERKS0_(ptr noundef nonnull align 8 dereferenceable(64) %arrayidx3, ptr noundef nonnull align 8 dereferenceable(64) %3)
  br label %if.end

if.end:                                           ; preds = %if.else, %if.then
  ret void
}