; Function Attrs: mustprogress uwtable
define void @_ZN6icu_7520DecimalFormatSymbols28setPatternForCurrencySpacingE16UCurrencySpacingaRKNS_13UnicodeStringE(ptr noundef nonnull align 8 dereferenceable(2883) %this, i32 noundef %type, i8 noundef signext %beforeCurrency, ptr noundef nonnull align 8 dereferenceable(64) %pattern) local_unnamed_addr #1 align 2 {
entry:
  %tobool.not = icmp eq i8 %beforeCurrency, 0
  %idxprom2 = sext i32 %type to i64
  %. = select i1 %tobool.not, i64 2680, i64 2488
  %currencySpcAfterSym = getelementptr inbounds i8, ptr %this, i64 %.
  %arrayidx3 = getelementptr inbounds [3 x %"class.icu_75::UnicodeString"], ptr %currencySpcAfterSym, i64 0, i64 %idxprom2
  %call4 = tail call noundef nonnull align 8 dereferenceable(64) ptr @_ZN6icu_7513UnicodeStringaSERKS0_(ptr noundef nonnull align 8 dereferenceable(64) %arrayidx3, ptr noundef nonnull align 8 dereferenceable(64) %pattern)
  ret void
}